target datalayout = "e-m:e-p270:32:32-p271:32:32-p272:64:64-i64:64-i128:128-f80:128-n8:16:32:64-S128"
target triple = "x86_64-pc-linux-gnu"

%struct._packet_info = type { ptr, ptr, i32, i32, %struct.nstime_t, %struct.nstime_t, %struct.nstime_t, i8, ptr, ptr, ptr, ptr, %struct._address, %struct._address, %struct._address, %struct._address, %struct._address, %struct._address, i32, ptr, i8, [3 x i8], %struct.anon, i32, i32, i32, i32, ptr, i8, ptr, ptr, i16, i16, i32, i32, i16, i32, i32, ptr, ptr, ptr, i8, i8, i16, i16, i16, i32, i16, i16, ptr, ptr, ptr, ptr, ptr, i32, i32 }
%struct.nstime_t = type { i64, i32 }
%struct._address = type { i32, i32, ptr, ptr }
%struct.anon = type { i8, [3 x i8] }
%struct._asn1_ctx_t = type { i32, i32, i8, ptr, ptr, ptr, ptr, ptr, %struct.anon.0, %struct.anon.3, %struct.anon.4, ptr }
%struct.anon.0 = type { i32, i8, i8, i8, ptr, ptr, i32, i32, ptr, ptr, ptr, %union.anon }
%union.anon = type { %struct.anon.1 }
%struct.anon.1 = type { ptr }
%struct.anon.3 = type { ptr, ptr, ptr }
%struct.anon.4 = type { i32, i8, ptr, i32, i32, ptr, ptr, ptr, %union.anon.5 }
%union.anon.5 = type { %struct.anon.6 }
%struct.anon.6 = type { ptr }
%struct.nbap_private_data_t = type { i32, i16, i32, i32, i32, i32, i32, i32, i32, i32, i32, i32, i32, i32, i32, i32, i32, i32, i8, i32, i32, i32, i32, i32, i32, i32, i32, i8, i8, [256 x %struct.nbap_dch_channel_info_t], [8 x %struct.nbap_edch_channel_info_t], [8 x i32], [8 x %struct.nbap_hsdsch_channel_info_t], [8 x %struct.nbap_common_channel_info_t], ptr }
%struct.nbap_dch_channel_info_t = type { i32, i32, i32, [64 x i32], [64 x i32], i32, [64 x i32], [64 x i32] }
%struct.nbap_edch_channel_info_t = type { %struct._address, i16, i32, [16 x i8], [16 x i32], i8, [16 x i8] }
%struct.nbap_hsdsch_channel_info_t = type { %struct._address, i16, i32, i32, i8 }
%struct.nbap_common_channel_info_t = type { %struct._address, i16, i32 }

@proto_nbap = internal global i32 0, align 4

; Function Attrs: null_pointer_is_valid sspstrong uwtable
define internal ptr @nbap_get_private_data(ptr noundef %0) #0 {
  %2 = alloca ptr, align 8
  %3 = alloca i8, align 1
  %4 = alloca ptr, align 8
  store ptr %0, ptr %2, align 8
  call void @llvm.lifetime.start.p0(i64 1, ptr %3) #13
  call void @llvm.lifetime.start.p0(i64 8, ptr %4) #13
  %5 = load ptr, ptr %2, align 8
  %6 = getelementptr inbounds nuw %struct._packet_info, ptr %5, i32 0, i32 51
  %7 = load ptr, ptr %6, align 8
  %8 = load ptr, ptr %2, align 8
  %9 = load i32, ptr @proto_nbap, align 4
  %10 = call ptr @p_get_proto_data(ptr noundef %7, ptr noundef %8, i32 noundef %9, i32 noundef 0)
  store ptr %10, ptr %4, align 8
  %11 = load ptr, ptr %4, align 8
  %12 = icmp eq ptr %11, null
  br i1 %12, label %13, label %49

13:                                               ; preds = %1
  %14 = load ptr, ptr %2, align 8
  %15 = getelementptr inbounds nuw %struct._packet_info, ptr %14, i32 0, i32 51
  %16 = load ptr, ptr %15, align 8
  %17 = call noalias ptr @wmem_alloc0(ptr noundef %16, i64 noundef 268056) #14
  store ptr %17, ptr %4, align 8
  %18 = load ptr, ptr %2, align 8
  %19 = getelementptr inbounds nuw %struct._packet_info, ptr %18, i32 0, i32 51
  %20 = load ptr, ptr %19, align 8
  %21 = load ptr, ptr %2, align 8
  %22 = load i32, ptr @proto_nbap, align 4
  %23 = load ptr, ptr %4, align 8
  call void @p_add_proto_data(ptr noundef %20, ptr noundef %21, i32 noundef %22, i32 noundef 0, ptr noundef %23)
  %24 = load ptr, ptr %4, align 8
  %25 = getelementptr inbounds nuw %struct.nbap_private_data_t, ptr %24, i32 0, i32 17
  store i32 3, ptr %25, align 4
  %26 = load ptr, ptr %4, align 8
  %27 = getelementptr inbounds nuw %struct.nbap_private_data_t, ptr %26, i32 0, i32 27
  store i8 0, ptr %27, align 4
  %28 = load ptr, ptr %4, align 8
  %29 = getelementptr inbounds nuw %struct.nbap_private_data_t, ptr %28, i32 0, i32 3
  store i32 65535, ptr %29, align 4
  %30 = load ptr, ptr %4, align 8
  %31 = getelementptr inbounds nuw %struct.nbap_private_data_t, ptr %30, i32 0, i32 10
  store i32 65535, ptr %31, align 8
  %32 = load ptr, ptr %4, align 8
  %33 = getelementptr inbounds nuw %struct.nbap_private_data_t, ptr %32, i32 0, i32 28
  store i8 2, ptr %33, align 1
  store i8 0, ptr %3, align 1
  br label %34

34:                                               ; preds = %45, %13
  %35 = load i8, ptr %3, align 1
  %36 = zext i8 %35 to i32
  %37 = icmp slt i32 %36, 8
  br i1 %37, label %38, label %48

38:                                               ; preds = %34
  %39 = load ptr, ptr %4, align 8
  %40 = getelementptr inbounds nuw %struct.nbap_private_data_t, ptr %39, i32 0, i32 32
  %41 = load i8, ptr %3, align 1
  %42 = zext i8 %41 to i64
  %43 = getelementptr [8 x %struct.nbap_hsdsch_channel_info_t], ptr %40, i64 0, i64 %42
  %44 = getelementptr inbounds nuw %struct.nbap_hsdsch_channel_info_t, ptr %43, i32 0, i32 4
  store i8 1, ptr %44, align 4
  br label %45

45:                                               ; preds = %38
  %46 = load i8, ptr %3, align 1
  %47 = add i8 %46, 1
  store i8 %47, ptr %3, align 1
  br label %34, !llvm.loop !9

48:                                               ; preds = %34
  br label %49

49:                                               ; preds = %48, %1
  %50 = load ptr, ptr %4, align 8
  call void @llvm.lifetime.end.p0(i64 8, ptr %4) #13
  call void @llvm.lifetime.end.p0(i64 1, ptr %3) #13
  ret ptr %50
}

; Function Attrs: null_pointer_is_valid sspstrong uwtable
define internal i32 @dissect_nbap_TransportFormatSet_TransportBlockSize(ptr noundef %0, i32 noundef %1, ptr noundef %2, ptr noundef %3, i32 noundef %4) #0 {
  %6 = alloca ptr, align 8
  %7 = alloca i32, align 4
  %8 = alloca ptr, align 8
  %9 = alloca ptr, align 8
  %10 = alloca i32, align 4
  %11 = alloca i32, align 4
  %12 = alloca i32, align 4
  %13 = alloca i32, align 4
  %14 = alloca i32, align 4
  %15 = alloca i32, align 4
  %16 = alloca ptr, align 8
  %17 = alloca ptr, align 8
  store ptr %0, ptr %6, align 8
  store i32 %1, ptr %7, align 4
  store ptr %2, ptr %8, align 8
  store ptr %3, ptr %9, align 8
  store i32 %4, ptr %10, align 4
  call void @llvm.lifetime.start.p0(i64 4, ptr %11) #13
  call void @llvm.lifetime.start.p0(i64 4, ptr %12) #13
  call void @llvm.lifetime.start.p0(i64 4, ptr %13) #13
  call void @llvm.lifetime.start.p0(i64 4, ptr %14) #13
  call void @llvm.lifetime.start.p0(i64 4, ptr %15) #13
  call void @llvm.lifetime.start.p0(i64 8, ptr %16) #13
  call void @llvm.lifetime.start.p0(i64 8, ptr %17) #13
  %18 = load ptr, ptr %8, align 8
  %19 = getelementptr inbounds nuw %struct._asn1_ctx_t, ptr %18, i32 0, i32 3
  %20 = load ptr, ptr %19, align 8
  %21 = call ptr @nbap_get_private_data(ptr noundef %20)
  store ptr %21, ptr %17, align 8
  %22 = load ptr, ptr %17, align 8
  %23 = getelementptr inbounds nuw %struct.nbap_private_data_t, ptr %22, i32 0, i32 29
  %24 = getelementptr inbounds [256 x %struct.nbap_dch_channel_info_t], ptr %23, i64 0, i64 0
  store ptr %24, ptr %16, align 8
  %25 = load ptr, ptr %6, align 8
  %26 = load i32, ptr %7, align 4
  %27 = load ptr, ptr %8, align 8
  %28 = load ptr, ptr %9, align 8
  %29 = load i32, ptr %10, align 4
  %30 = call i32 @dissect_per_constrained_integer(ptr noundef %25, i32 noundef %26, ptr noundef %27, ptr noundef %28, i32 noundef %29, i32 noundef 0, i32 noundef 5000, ptr noundef %11, i1 noundef zeroext false)
  store i32 %30, ptr %7, align 4
  %31 = load ptr, ptr %17, align 8
  %32 = getelementptr inbounds nuw %struct.nbap_private_data_t, ptr %31, i32 0, i32 4
  %33 = load i32, ptr %32, align 8
  %34 = icmp ugt i32 %33, 0
  br i1 %34, label %35, label %127

35:                                               ; preds = %5
  %36 = load ptr, ptr %17, align 8
  %37 = getelementptr inbounds nuw %struct.nbap_private_data_t, ptr %36, i32 0, i32 4
  %38 = load i32, ptr %37, align 8
  store i32 %38, ptr %12, align 4
  %39 = load ptr, ptr %17, align 8
  %40 = getelementptr inbounds nuw %struct.nbap_private_data_t, ptr %39, i32 0, i32 13
  %41 = load i32, ptr %40, align 4
  store i32 %41, ptr %13, align 4
  %42 = load i32, ptr %12, align 4
  %43 = icmp ugt i32 %42, 0
  br i1 %43, label %44, label %126

44:                                               ; preds = %35
  %45 = load i32, ptr %12, align 4
  %46 = icmp ult i32 %45, 65
  br i1 %46, label %47, label %126

47:                                               ; preds = %44
  %48 = load i32, ptr %13, align 4
  %49 = icmp ne i32 %48, -1
  br i1 %49, label %50, label %126

50:                                               ; preds = %47
  %51 = load ptr, ptr %17, align 8
  %52 = getelementptr inbounds nuw %struct.nbap_private_data_t, ptr %51, i32 0, i32 15
  %53 = load i32, ptr %52, align 4
  store i32 %53, ptr %14, align 4
  %54 = load ptr, ptr %17, align 8
  %55 = getelementptr inbounds nuw %struct.nbap_private_data_t, ptr %54, i32 0, i32 23
  %56 = load i32, ptr %55, align 4
  store i32 %56, ptr %15, align 4
  %57 = load ptr, ptr %17, align 8
  %58 = getelementptr inbounds nuw %struct.nbap_private_data_t, ptr %57, i32 0, i32 2
  %59 = load i32, ptr %58, align 8
  switch i32 %59, label %124 [
    i32 0, label %60
    i32 1, label %71
    i32 2, label %82
    i32 4, label %103
  ]

60:                                               ; preds = %50
  %61 = load i32, ptr %11, align 4
  %62 = load ptr, ptr %16, align 8
  %63 = load i32, ptr %13, align 4
  %64 = zext i32 %63 to i64
  %65 = getelementptr %struct.nbap_dch_channel_info_t, ptr %62, i64 %64
  %66 = getelementptr inbounds nuw %struct.nbap_dch_channel_info_t, ptr %65, i32 0, i32 3
  %67 = load i32, ptr %12, align 4
  %68 = sub i32 %67, 1
  %69 = zext i32 %68 to i64
  %70 = getelementptr [64 x i32], ptr %66, i64 0, i64 %69
  store i32 %61, ptr %70, align 4
  br label %125

71:                                               ; preds = %50
  %72 = load i32, ptr %11, align 4
  %73 = load ptr, ptr %16, align 8
  %74 = load i32, ptr %13, align 4
  %75 = zext i32 %74 to i64
  %76 = getelementptr %struct.nbap_dch_channel_info_t, ptr %73, i64 %75
  %77 = getelementptr inbounds nuw %struct.nbap_dch_channel_info_t, ptr %76, i32 0, i32 6
  %78 = load i32, ptr %12, align 4
  %79 = sub i32 %78, 1
  %80 = zext i32 %79 to i64
  %81 = getelementptr [64 x i32], ptr %77, i64 0, i64 %80
  store i32 %72, ptr %81, align 4
  br label %125

82:                                               ; preds = %50
  %83 = load i32, ptr %11, align 4
  %84 = load ptr, ptr %16, align 8
  %85 = load i32, ptr %14, align 4
  %86 = zext i32 %85 to i64
  %87 = getelementptr %struct.nbap_dch_channel_info_t, ptr %84, i64 %86
  %88 = getelementptr inbounds nuw %struct.nbap_dch_channel_info_t, ptr %87, i32 0, i32 3
  %89 = load i32, ptr %12, align 4
  %90 = sub i32 %89, 1
  %91 = zext i32 %90 to i64
  %92 = getelementptr [64 x i32], ptr %88, i64 0, i64 %91
  store i32 %83, ptr %92, align 4
  %93 = load i32, ptr %11, align 4
  %94 = load ptr, ptr %16, align 8
  %95 = load i32, ptr %14, align 4
  %96 = zext i32 %95 to i64
  %97 = getelementptr %struct.nbap_dch_channel_info_t, ptr %94, i64 %96
  %98 = getelementptr inbounds nuw %struct.nbap_dch_channel_info_t, ptr %97, i32 0, i32 6
  %99 = load i32, ptr %12, align 4
  %100 = sub i32 %99, 1
  %101 = zext i32 %100 to i64
  %102 = getelementptr [64 x i32], ptr %98, i64 0, i64 %101
  store i32 %93, ptr %102, align 4
  br label %125

103:                                              ; preds = %50
  %104 = load i32, ptr %11, align 4
  %105 = load ptr, ptr %16, align 8
  %106 = load i32, ptr %15, align 4
  %107 = zext i32 %106 to i64
  %108 = getelementptr %struct.nbap_dch_channel_info_t, ptr %105, i64 %107
  %109 = getelementptr inbounds nuw %struct.nbap_dch_channel_info_t, ptr %108, i32 0, i32 3
  %110 = load i32, ptr %12, align 4
  %111 = sub i32 %110, 1
  %112 = zext i32 %111 to i64
  %113 = getelementptr [64 x i32], ptr %109, i64 0, i64 %112
  store i32 %104, ptr %113, align 4
  %114 = load i32, ptr %11, align 4
  %115 = load ptr, ptr %16, align 8
  %116 = load i32, ptr %15, align 4
  %117 = zext i32 %116 to i64
  %118 = getelementptr %struct.nbap_dch_channel_info_t, ptr %115, i64 %117
  %119 = getelementptr inbounds nuw %struct.nbap_dch_channel_info_t, ptr %118, i32 0, i32 6
  %120 = load i32, ptr %12, align 4
  %121 = sub i32 %120, 1
  %122 = zext i32 %121 to i64
  %123 = getelementptr [64 x i32], ptr %119, i64 0, i64 %122
  store i32 %114, ptr %123, align 4
  br label %125

124:                                              ; preds = %50
  br label %125

125:                                              ; preds = %124, %103, %82, %71, %60
  br label %126

126:                                              ; preds = %125, %47, %44, %35
  br label %127

127:                                              ; preds = %126, %5
  %128 = load i32, ptr %7, align 4
  call void @llvm.lifetime.end.p0(i64 8, ptr %17) #13
  call void @llvm.lifetime.end.p0(i64 8, ptr %16) #13
  call void @llvm.lifetime.end.p0(i64 4, ptr %15) #13
  call void @llvm.lifetime.end.p0(i64 4, ptr %14) #13
  call void @llvm.lifetime.end.p0(i64 4, ptr %13) #13
  call void @llvm.lifetime.end.p0(i64 4, ptr %12) #13
  call void @llvm.lifetime.end.p0(i64 4, ptr %11) #13
  ret i32 %128
}