; Function Attrs: null_pointer_is_valid sspstrong uwtable
define internal i32 @dissect_nbap_TransportFormatSet_TransportBlockSize(ptr noundef %0, i32 noundef %1, ptr noundef %2, ptr noundef %3, i32 noundef %4) #0 {
  %6 = alloca i32, align 4
  call void @llvm.lifetime.start.p0(i64 4, ptr nonnull %6) #9
  %7 = getelementptr inbounds nuw i8, ptr %2, i64 16
  %8 = load ptr, ptr %7, align 8
  %9 = getelementptr inbounds nuw i8, ptr %8, i64 408
  %10 = load ptr, ptr %9, align 8
  %11 = load i32, ptr @proto_nbap, align 4
  %12 = tail call ptr @p_get_proto_data(ptr noundef %10, ptr noundef %8, i32 noundef %11, i32 noundef 0)
  %13 = icmp eq ptr %12, null
  br i1 %13, label %14, label %nbap_get_private_data.exit

14:                                               ; preds = %5
  %15 = load ptr, ptr %9, align 8
  %16 = tail call noalias dereferenceable_or_null(268056) ptr @wmem_alloc0(ptr noundef %15, i64 noundef 268056) #10
  %17 = load ptr, ptr %9, align 8
  %18 = load i32, ptr @proto_nbap, align 4
  tail call void @p_add_proto_data(ptr noundef %17, ptr noundef %8, i32 noundef %18, i32 noundef 0, ptr noundef %16)
  %19 = getelementptr inbounds nuw i8, ptr %16, i64 68
  store i32 3, ptr %19, align 4
  %20 = getelementptr inbounds nuw i8, ptr %16, i64 108
  store i8 0, ptr %20, align 4
  %21 = getelementptr inbounds nuw i8, ptr %16, i64 12
  store i32 65535, ptr %21, align 4
  %22 = getelementptr inbounds nuw i8, ptr %16, i64 40
  store i32 65535, ptr %22, align 8
  %23 = getelementptr inbounds nuw i8, ptr %16, i64 109
  store i8 2, ptr %23, align 1
  %24 = getelementptr i8, ptr %16, i64 267508
  br label %25

25:                                               ; preds = %25, %14
  %indvars.iv.i = phi i64 [ 0, %14 ], [ %indvars.iv.next.i, %25 ]
  %.idx.i = mul nuw nsw i64 %indvars.iv.i, 40
  %26 = getelementptr i8, ptr %24, i64 %.idx.i
  store i8 1, ptr %26, align 4
  %indvars.iv.next.i = add nuw nsw i64 %indvars.iv.i, 1
  %exitcond.not.i = icmp eq i64 %indvars.iv.next.i, 8
  br i1 %exitcond.not.i, label %nbap_get_private_data.exit, label %25, !llvm.loop !9

nbap_get_private_data.exit:                       ; preds = %25, %5
  %.0.i = phi ptr [ %12, %5 ], [ %16, %25 ]
  %27 = getelementptr inbounds nuw i8, ptr %.0.i, i64 112
  %28 = call i32 @dissect_per_constrained_integer(ptr noundef %0, i32 noundef %1, ptr noundef %2, ptr noundef %3, i32 noundef %4, i32 noundef 0, i32 noundef 5000, ptr noundef nonnull %6, i1 noundef zeroext false)
  %29 = getelementptr inbounds nuw i8, ptr %.0.i, i64 16
  %30 = load i32, ptr %29, align 8
  %.not = icmp eq i32 %30, 0
  br i1 %.not, label %78, label %31

31:                                               ; preds = %nbap_get_private_data.exit
  %32 = getelementptr inbounds nuw i8, ptr %.0.i, i64 52
  %33 = load i32, ptr %32, align 4
  %34 = icmp ult i32 %30, 65
  %35 = icmp ne i32 %33, -1
  %or.cond3 = select i1 %34, i1 %35, i1 false
  br i1 %or.cond3, label %36, label %78

36:                                               ; preds = %31
  %37 = getelementptr inbounds nuw i8, ptr %.0.i, i64 8
  %38 = load i32, ptr %37, align 8
  switch i32 %38, label %78 [
    i32 0, label %39
    i32 1, label %46
    i32 2, label %54
    i32 4, label %66
  ]

39:                                               ; preds = %36
  %40 = load i32, ptr %6, align 4
  %41 = zext i32 %33 to i64
  %.idx38 = mul nuw nsw i64 %41, 1040
  %.offs = or disjoint i64 %.idx38, 12
  %42 = getelementptr i8, ptr %27, i64 %.offs
  %43 = add nsw i32 %30, -1
  %44 = zext nneg i32 %43 to i64
  %45 = getelementptr [64 x i32], ptr %42, i64 0, i64 %44
  store i32 %40, ptr %45, align 4
  br label %78

46:                                               ; preds = %36
  %47 = load i32, ptr %6, align 4
  %48 = zext i32 %33 to i64
  %.idx = mul nuw nsw i64 %48, 1040
  %49 = getelementptr i8, ptr %27, i64 %.idx
  %50 = getelementptr i8, ptr %49, i64 528
  %51 = add nsw i32 %30, -1
  %52 = zext nneg i32 %51 to i64
  %53 = getelementptr [64 x i32], ptr %50, i64 0, i64 %52
  store i32 %47, ptr %53, align 4
  br label %78

54:                                               ; preds = %36
  %55 = getelementptr inbounds nuw i8, ptr %.0.i, i64 60
  %56 = load i32, ptr %55, align 4
  %57 = load i32, ptr %6, align 4
  %58 = zext i32 %56 to i64
  %59 = getelementptr %struct.nbap_dch_channel_info_t, ptr %27, i64 %58
  %60 = getelementptr inbounds nuw i8, ptr %59, i64 12
  %61 = add nsw i32 %30, -1
  %62 = zext nneg i32 %61 to i64
  %63 = getelementptr [64 x i32], ptr %60, i64 0, i64 %62
  store i32 %57, ptr %63, align 4
  %64 = getelementptr inbounds nuw i8, ptr %59, i64 528
  %65 = getelementptr [64 x i32], ptr %64, i64 0, i64 %62
  store i32 %57, ptr %65, align 4
  br label %78

66:                                               ; preds = %36
  %67 = getelementptr inbounds nuw i8, ptr %.0.i, i64 92
  %68 = load i32, ptr %67, align 4
  %69 = load i32, ptr %6, align 4
  %70 = zext i32 %68 to i64
  %71 = getelementptr %struct.nbap_dch_channel_info_t, ptr %27, i64 %70
  %72 = getelementptr inbounds nuw i8, ptr %71, i64 12
  %73 = add nsw i32 %30, -1
  %74 = zext nneg i32 %73 to i64
  %75 = getelementptr [64 x i32], ptr %72, i64 0, i64 %74
  store i32 %69, ptr %75, align 4
  %76 = getelementptr inbounds nuw i8, ptr %71, i64 528
  %77 = getelementptr [64 x i32], ptr %76, i64 0, i64 %74
  store i32 %69, ptr %77, align 4
  br label %78

78:                                               ; preds = %31, %36, %66, %54, %46, %39, %nbap_get_private_data.exit
  call void @llvm.lifetime.end.p0(i64 4, ptr nonnull %6) #9
  ret i32 %28
}